target datalayout = "e-m:e-p270:32:32-p271:32:32-p272:64:64-i64:64-i128:128-f80:128-n8:16:32:64-S128"
target triple = "x86_64-pc-linux-gnu"

%struct._zend_executor_globals = type { %struct._zval_struct, %struct._zval_struct, [32 x ptr], ptr, ptr, %struct._zend_array, %struct._zend_array, ptr, i32, i32, ptr, ptr, ptr, ptr, ptr, ptr, i64, ptr, ptr, i32, i32, i64, i32, i32, i32, i8, i8, %struct.zend_atomic_bool_s, %struct.zend_atomic_bool_s, ptr, i64, ptr, ptr, %struct._zend_array, %struct._zend_array, i32, i8, %struct._zval_struct, %struct._zval_struct, %struct._zend_stack, %struct._zend_stack, %struct._zend_stack, ptr, i32, i32, i64, ptr, ptr, ptr, %struct._zend_objects_store, ptr, ptr, ptr, [3 x %struct._zend_op], ptr, i8, i8, i64, i32, i32, ptr, [16 x %struct._HashTableIterator], ptr, %union._zend_function, %struct._zend_op, %struct._zend_array, i64, %struct.zend_get_gc_buffer, ptr, ptr, ptr, i64, i8, i32, ptr, ptr, i64, %struct._zend_call_stack, i64, i64, [6 x ptr] }
%struct.zend_atomic_bool_s = type { i8 }
%struct._zval_struct = type { %union._zend_value, %union.anon.0, %union.anon.3 }
%union._zend_value = type { i64 }
%union.anon.0 = type { i32 }
%union.anon.3 = type { i32 }
%struct._zend_stack = type { i32, i32, i32, ptr }
%struct._zend_objects_store = type { ptr, i32, i32, i32 }
%struct._HashTableIterator = type { ptr, i32, i32 }
%union._zend_function = type { %struct._zend_op_array }
%struct._zend_op_array = type { i8, [3 x i8], i32, ptr, ptr, ptr, i32, i32, ptr, ptr, ptr, ptr, i32, i32, i32, i32, ptr, ptr, ptr, ptr, ptr, i32, i32, ptr, ptr, ptr, i32, i32, i32, i32, ptr, ptr, [6 x ptr] }
%struct._zend_op = type { ptr, %union._znode_op, %union._znode_op, %union._znode_op, i32, i32, i8, i8, i8, i8 }
%union._znode_op = type { i32 }
%struct._zend_array = type { %struct._zend_refcounted_h, %union.anon.4, i32, %union.anon.6, i32, i32, i32, i32, i64, ptr }
%struct._zend_refcounted_h = type { i32, %union.anon }
%union.anon = type { i32 }
%union.anon.4 = type { i32 }
%union.anon.6 = type { ptr }
%struct.zend_get_gc_buffer = type { ptr, ptr, ptr }
%struct._zend_call_stack = type { ptr, i64 }
%struct._xmlreader_object = type { ptr, ptr, ptr, ptr, %struct._zend_object }
%struct._zend_object = type { %struct._zend_refcounted_h, i32, ptr, ptr, ptr, [1 x %struct._zval_struct] }
%struct._zend_execute_data = type { ptr, ptr, ptr, ptr, %struct._zval_struct, ptr, ptr, ptr, ptr }

@executor_globals = external global %struct._zend_executor_globals, align 8
@.str.9 = private unnamed_addr constant [16 x i8] c"cannot be empty\00", align 1
@.str.18 = private unnamed_addr constant [3 x i8] c"p!\00", align 1
@.str.19 = private unnamed_addr constant [23 x i8] c"Schema contains errors\00", align 1
@.str.20 = private unnamed_addr constant [36 x i8] c"Schema must be set prior to reading\00", align 1

; Function Attrs: nounwind uwtable
define internal ptr @_xmlreader_get_relaxNG(ptr noundef %0, i64 noundef %1, i64 noundef %2, ptr noundef %3, ptr noundef %4) #0 {
  %6 = alloca ptr, align 8
  %7 = alloca ptr, align 8
  %8 = alloca i64, align 8
  %9 = alloca i64, align 8
  %10 = alloca ptr, align 8
  %11 = alloca ptr, align 8
  %12 = alloca ptr, align 8
  %13 = alloca ptr, align 8
  %14 = alloca ptr, align 8
  %15 = alloca [4097 x i8], align 16
  %16 = alloca i32, align 4
  %17 = alloca i32, align 4
  %18 = alloca i32, align 4
  %19 = alloca i32, align 4
  %20 = alloca i32, align 4
  %21 = alloca i32, align 4
  store ptr %0, ptr %7, align 8
  store i64 %1, ptr %8, align 8
  store i64 %2, ptr %9, align 8
  store ptr %3, ptr %10, align 8
  store ptr %4, ptr %11, align 8
  store ptr null, ptr %12, align 8
  store ptr null, ptr %13, align 8
  %22 = load i64, ptr %9, align 8
  switch i64 %22, label %38 [
    i64 1, label %23
    i64 0, label %33
  ]

23:                                               ; preds = %5
  %24 = load ptr, ptr %7, align 8
  %25 = getelementptr inbounds [4097 x i8], ptr %15, i64 0, i64 0
  %26 = call ptr @_xmlreader_get_valid_file_path(ptr noundef %24, ptr noundef %25, i32 noundef 4096)
  store ptr %26, ptr %12, align 8
  %27 = load ptr, ptr %12, align 8
  %28 = icmp ne ptr %27, null
  br i1 %28, label %30, label %29

29:                                               ; preds = %23
  store ptr null, ptr %6, align 8
  br label %81

30:                                               ; preds = %23
  %31 = load ptr, ptr %12, align 8
  %32 = call ptr @xmlRelaxNGNewParserCtxt(ptr noundef %31)
  store ptr %32, ptr %13, align 8
  br label %39

33:                                               ; preds = %5
  %34 = load ptr, ptr %7, align 8
  %35 = load i64, ptr %8, align 8
  %36 = trunc i64 %35 to i32
  %37 = call ptr @xmlRelaxNGNewMemParserCtxt(ptr noundef %34, i32 noundef %36)
  store ptr %37, ptr %13, align 8
  br label %39

38:                                               ; preds = %5
  store ptr null, ptr %6, align 8
  br label %81

39:                                               ; preds = %33, %30
  %40 = load ptr, ptr %13, align 8
  %41 = icmp eq ptr %40, null
  br i1 %41, label %42, label %43

42:                                               ; preds = %39
  store ptr null, ptr %6, align 8
  br label %81

43:                                               ; preds = %39
  %44 = call ptr @__xmlLoadExtDtdDefaultValue()
  %45 = load i32, ptr %44, align 4
  store i32 %45, ptr %16, align 4
  %46 = call ptr @__xmlLoadExtDtdDefaultValue()
  store i32 0, ptr %46, align 4
  %47 = call ptr @__xmlDoValidityCheckingDefaultValue()
  %48 = load i32, ptr %47, align 4
  store i32 %48, ptr %17, align 4
  %49 = call ptr @__xmlDoValidityCheckingDefaultValue()
  store i32 0, ptr %49, align 4
  %50 = call i32 @xmlPedanticParserDefault(i32 noundef 0)
  store i32 %50, ptr %18, align 4
  %51 = call i32 @xmlSubstituteEntitiesDefault(i32 noundef 0)
  store i32 %51, ptr %19, align 4
  %52 = call i32 @xmlLineNumbersDefault(i32 noundef 0)
  store i32 %52, ptr %20, align 4
  %53 = call i32 @xmlKeepBlanksDefault(i32 noundef 1)
  store i32 %53, ptr %21, align 4
  %54 = load ptr, ptr %10, align 8
  %55 = icmp ne ptr %54, null
  br i1 %55, label %59, label %56

56:                                               ; preds = %43
  %57 = load ptr, ptr %11, align 8
  %58 = icmp ne ptr %57, null
  br i1 %58, label %59, label %64

59:                                               ; preds = %56, %43
  %60 = load ptr, ptr %13, align 8
  %61 = load ptr, ptr %10, align 8
  %62 = load ptr, ptr %11, align 8
  %63 = load ptr, ptr %13, align 8
  call void @xmlRelaxNGSetParserErrors(ptr noundef %60, ptr noundef %61, ptr noundef %62, ptr noundef %63)
  br label %64

64:                                               ; preds = %59, %56
  %65 = load ptr, ptr %13, align 8
  %66 = call ptr @xmlRelaxNGParse(ptr noundef %65)
  store ptr %66, ptr %14, align 8
  %67 = load ptr, ptr %13, align 8
  call void @xmlRelaxNGFreeParserCtxt(ptr noundef %67)
  %68 = load i32, ptr %16, align 4
  %69 = call ptr @__xmlLoadExtDtdDefaultValue()
  store i32 %68, ptr %69, align 4
  %70 = load i32, ptr %17, align 4
  %71 = call ptr @__xmlDoValidityCheckingDefaultValue()
  store i32 %70, ptr %71, align 4
  %72 = load i32, ptr %18, align 4
  %73 = call i32 @xmlPedanticParserDefault(i32 noundef %72)
  %74 = load i32, ptr %19, align 4
  %75 = call i32 @xmlSubstituteEntitiesDefault(i32 noundef %74)
  %76 = load i32, ptr %20, align 4
  %77 = call i32 @xmlLineNumbersDefault(i32 noundef %76)
  %78 = load i32, ptr %21, align 4
  %79 = call i32 @xmlKeepBlanksDefault(i32 noundef %78)
  %80 = load ptr, ptr %14, align 8
  store ptr %80, ptr %6, align 8
  br label %81

81:                                               ; preds = %64, %42, %38, %29
  %82 = load ptr, ptr %6, align 8
  ret ptr %82
}

; Function Attrs: nounwind uwtable
define internal ptr @php_xmlreader_fetch_object(ptr noundef %0) #0 {
  %2 = alloca ptr, align 8
  store ptr %0, ptr %2, align 8
  %3 = load ptr, ptr %2, align 8
  %4 = getelementptr inbounds i8, ptr %3, i64 -32
  ret ptr %4
}

; Function Attrs: nounwind uwtable
define internal void @php_xmlreader_set_relaxng_schema(ptr noundef %0, ptr noundef %1, i32 noundef %2) #0 {
  %4 = alloca ptr, align 8
  %5 = alloca ptr, align 8
  %6 = alloca i32, align 4
  %7 = alloca ptr, align 8
  %8 = alloca i64, align 8
  %9 = alloca i32, align 4
  %10 = alloca ptr, align 8
  %11 = alloca ptr, align 8
  %12 = alloca ptr, align 8
  store ptr %0, ptr %4, align 8
  store ptr %1, ptr %5, align 8
  store i32 %2, ptr %6, align 4
  store i64 0, ptr %8, align 8
  store i32 -1, ptr %9, align 4
  store ptr null, ptr %11, align 8
  %13 = load ptr, ptr %4, align 8
  %14 = getelementptr inbounds %struct._zend_execute_data, ptr %13, i32 0, i32 4
  %15 = getelementptr inbounds %struct._zval_struct, ptr %14, i32 0, i32 2
  %16 = load i32, ptr %15, align 4
  %17 = call i32 (i32, ptr, ...) @zend_parse_parameters(i32 noundef %16, ptr noundef @.str.18, ptr noundef %12, ptr noundef %8)
  %18 = icmp eq i32 %17, -1
  br i1 %18, label %19, label %24

19:                                               ; preds = %3
  br label %20

20:                                               ; preds = %19
  %21 = load ptr, ptr getelementptr inbounds (%struct._zend_executor_globals, ptr @executor_globals, i32 0, i32 50), align 8
  %22 = icmp ne ptr %21, null
  call void @llvm.assume(i1 %22)
  br label %104

23:                                               ; No predecessors!
  br label %24

24:                                               ; preds = %23, %3
  %25 = load ptr, ptr %12, align 8
  %26 = icmp ne ptr %25, null
  br i1 %26, label %27, label %35

27:                                               ; preds = %24
  %28 = load i64, ptr %8, align 8
  %29 = icmp ne i64 %28, 0
  br i1 %29, label %35, label %30

30:                                               ; preds = %27
  call void (i32, ptr, ...) @zend_argument_value_error(i32 noundef 1, ptr noundef @.str.9)
  br label %31

31:                                               ; preds = %30
  %32 = load ptr, ptr getelementptr inbounds (%struct._zend_executor_globals, ptr @executor_globals, i32 0, i32 50), align 8
  %33 = icmp ne ptr %32, null
  call void @llvm.assume(i1 %33)
  br label %104

34:                                               ; No predecessors!
  br label %35

35:                                               ; preds = %34, %27, %24
  %36 = load ptr, ptr %4, align 8
  %37 = getelementptr inbounds %struct._zend_execute_data, ptr %36, i32 0, i32 4
  store ptr %37, ptr %7, align 8
  %38 = load ptr, ptr %7, align 8
  %39 = getelementptr inbounds %struct._zval_struct, ptr %38, i32 0, i32 0
  %40 = load ptr, ptr %39, align 8
  %41 = call ptr @php_xmlreader_fetch_object(ptr noundef %40)
  store ptr %41, ptr %10, align 8
  %42 = load ptr, ptr %10, align 8
  %43 = getelementptr inbounds %struct._xmlreader_object, ptr %42, i32 0, i32 0
  %44 = load ptr, ptr %43, align 8
  %45 = icmp ne ptr %44, null
  br i1 %45, label %46, label %99

46:                                               ; preds = %35
  %47 = load ptr, ptr %12, align 8
  %48 = icmp ne ptr %47, null
  br i1 %48, label %49, label %64

49:                                               ; preds = %46
  %50 = load ptr, ptr %12, align 8
  %51 = load i64, ptr %8, align 8
  %52 = load i32, ptr %6, align 4
  %53 = sext i32 %52 to i64
  %54 = call ptr @_xmlreader_get_relaxNG(ptr noundef %50, i64 noundef %51, i64 noundef %53, ptr noundef null, ptr noundef null)
  store ptr %54, ptr %11, align 8
  %55 = load ptr, ptr %11, align 8
  %56 = icmp ne ptr %55, null
  br i1 %56, label %57, label %63

57:                                               ; preds = %49
  %58 = load ptr, ptr %10, align 8
  %59 = getelementptr inbounds %struct._xmlreader_object, ptr %58, i32 0, i32 0
  %60 = load ptr, ptr %59, align 8
  %61 = load ptr, ptr %11, align 8
  %62 = call i32 @xmlTextReaderRelaxNGSetSchema(ptr noundef %60, ptr noundef %61)
  store i32 %62, ptr %9, align 4
  br label %63

63:                                               ; preds = %57, %49
  br label %69

64:                                               ; preds = %46
  %65 = load ptr, ptr %10, align 8
  %66 = getelementptr inbounds %struct._xmlreader_object, ptr %65, i32 0, i32 0
  %67 = load ptr, ptr %66, align 8
  %68 = call i32 @xmlTextReaderRelaxNGSetSchema(ptr noundef %67, ptr noundef null)
  store i32 %68, ptr %9, align 4
  br label %69

69:                                               ; preds = %64, %63
  %70 = load i32, ptr %9, align 4
  %71 = icmp eq i32 %70, 0
  br i1 %71, label %72, label %91

72:                                               ; preds = %69
  %73 = load ptr, ptr %10, align 8
  %74 = getelementptr inbounds %struct._xmlreader_object, ptr %73, i32 0, i32 2
  %75 = load ptr, ptr %74, align 8
  %76 = icmp ne ptr %75, null
  br i1 %76, label %77, label %81

77:                                               ; preds = %72
  %78 = load ptr, ptr %10, align 8
  %79 = getelementptr inbounds %struct._xmlreader_object, ptr %78, i32 0, i32 2
  %80 = load ptr, ptr %79, align 8
  call void @xmlRelaxNGFree(ptr noundef %80)
  br label %81

81:                                               ; preds = %77, %72
  %82 = load ptr, ptr %11, align 8
  %83 = load ptr, ptr %10, align 8
  %84 = getelementptr inbounds %struct._xmlreader_object, ptr %83, i32 0, i32 2
  store ptr %82, ptr %84, align 8
  br label %85

85:                                               ; preds = %81
  br label %86

86:                                               ; preds = %85
  %87 = load ptr, ptr %5, align 8
  %88 = getelementptr inbounds %struct._zval_struct, ptr %87, i32 0, i32 1
  store i32 3, ptr %88, align 8
  br label %89

89:                                               ; preds = %86
  br label %104

90:                                               ; No predecessors!
  br label %98

91:                                               ; preds = %69
  call void (ptr, i32, ptr, ...) @php_error_docref(ptr noundef null, i32 noundef 2, ptr noundef @.str.19)
  br label %92

92:                                               ; preds = %91
  br label %93

93:                                               ; preds = %92
  %94 = load ptr, ptr %5, align 8
  %95 = getelementptr inbounds %struct._zval_struct, ptr %94, i32 0, i32 1
  store i32 2, ptr %95, align 8
  br label %96

96:                                               ; preds = %93
  br label %104

97:                                               ; No predecessors!
  br label %98

98:                                               ; preds = %97, %90
  br label %104

99:                                               ; preds = %35
  call void (ptr, ptr, ...) @zend_throw_error(ptr noundef null, ptr noundef @.str.20)
  br label %100

100:                                              ; preds = %99
  %101 = load ptr, ptr getelementptr inbounds (%struct._zend_executor_globals, ptr @executor_globals, i32 0, i32 50), align 8
  %102 = icmp ne ptr %101, null
  call void @llvm.assume(i1 %102)
  br label %104

103:                                              ; No predecessors!
  br label %104

104:                                              ; preds = %103, %100, %98, %96, %89, %31, %20
  ret void
}