; Function Attrs: nounwind uwtable
define internal fastcc void @php_xmlreader_set_relaxng_schema(ptr nocapture noundef readonly %0, ptr nocapture noundef writeonly %1, i32 noundef %2) unnamed_addr #0 {
  %4 = alloca [4097 x i8], align 16
  %5 = alloca i64, align 8
  %6 = alloca ptr, align 8
  store i64 0, ptr %5, align 8
  %7 = getelementptr inbounds i8, ptr %0, i64 32
  %8 = getelementptr inbounds i8, ptr %0, i64 44
  %9 = load i32, ptr %8, align 4
  %10 = call i32 (i32, ptr, ...) @zend_parse_parameters(i32 noundef %9, ptr noundef nonnull @.str.18, ptr noundef nonnull %6, ptr noundef nonnull %5) #11
  %11 = icmp eq i32 %10, -1
  br i1 %11, label %12, label %15

12:                                               ; preds = %3
  %13 = load ptr, ptr getelementptr inbounds (%struct._zend_executor_globals, ptr @executor_globals, i64 0, i32 50), align 8
  %14 = icmp ne ptr %13, null
  call void @llvm.assume(i1 %14)
  br label %72

15:                                               ; preds = %3
  %16 = load ptr, ptr %6, align 8
  %17 = icmp eq ptr %16, null
  %18 = load i64, ptr %5, align 8
  %19 = icmp ne i64 %18, 0
  %or.cond = select i1 %17, i1 true, i1 %19
  br i1 %or.cond, label %23, label %20

20:                                               ; preds = %15
  call void (i32, ptr, ...) @zend_argument_value_error(i32 noundef 1, ptr noundef nonnull @.str.9) #11
  %21 = load ptr, ptr getelementptr inbounds (%struct._zend_executor_globals, ptr @executor_globals, i64 0, i32 50), align 8
  %22 = icmp ne ptr %21, null
  call void @llvm.assume(i1 %22)
  br label %72

23:                                               ; preds = %15
  %24 = load ptr, ptr %7, align 8
  %25 = getelementptr inbounds i8, ptr %24, i64 -32
  %26 = load ptr, ptr %25, align 8
  %.not = icmp eq ptr %26, null
  br i1 %.not, label %69, label %27

27:                                               ; preds = %23
  br i1 %17, label %58, label %28

28:                                               ; preds = %27
  call void @llvm.lifetime.start.p0(i64 4097, ptr nonnull %4)
  %switch.i = icmp eq i32 %2, 1
  br i1 %switch.i, label %29, label %33

29:                                               ; preds = %28
  %30 = call ptr @_xmlreader_get_valid_file_path(ptr noundef nonnull %16, ptr noundef nonnull %4, i32 poison)
  %.not.i = icmp eq ptr %30, null
  br i1 %.not.i, label %_xmlreader_get_relaxNG.exit.thread, label %31

31:                                               ; preds = %29
  %32 = call ptr @xmlRelaxNGNewParserCtxt(ptr noundef nonnull %30) #11
  br label %36

33:                                               ; preds = %28
  %34 = trunc i64 %18 to i32
  %35 = call ptr @xmlRelaxNGNewMemParserCtxt(ptr noundef nonnull %16, i32 noundef %34) #11
  br label %36

36:                                               ; preds = %33, %31
  %.023.i = phi ptr [ %35, %33 ], [ %32, %31 ]
  %37 = icmp eq ptr %.023.i, null
  br i1 %37, label %_xmlreader_get_relaxNG.exit.thread, label %_xmlreader_get_relaxNG.exit

_xmlreader_get_relaxNG.exit.thread:               ; preds = %29, %36
  call void @llvm.lifetime.end.p0(i64 4097, ptr nonnull %4)
  br label %.thread

_xmlreader_get_relaxNG.exit:                      ; preds = %36
  %38 = call ptr @__xmlLoadExtDtdDefaultValue() #11
  %39 = load i32, ptr %38, align 4
  %40 = call ptr @__xmlLoadExtDtdDefaultValue() #11
  store i32 0, ptr %40, align 4
  %41 = call ptr @__xmlDoValidityCheckingDefaultValue() #11
  %42 = load i32, ptr %41, align 4
  %43 = call ptr @__xmlDoValidityCheckingDefaultValue() #11
  store i32 0, ptr %43, align 4
  %44 = call i32 @xmlPedanticParserDefault(i32 noundef 0) #11
  %45 = call i32 @xmlSubstituteEntitiesDefault(i32 noundef 0) #11
  %46 = call i32 @xmlLineNumbersDefault(i32 noundef 0) #11
  %47 = call i32 @xmlKeepBlanksDefault(i32 noundef 1) #11
  %48 = call ptr @xmlRelaxNGParse(ptr noundef nonnull %.023.i) #11
  call void @xmlRelaxNGFreeParserCtxt(ptr noundef nonnull %.023.i) #11
  %49 = call ptr @__xmlLoadExtDtdDefaultValue() #11
  store i32 %39, ptr %49, align 4
  %50 = call ptr @__xmlDoValidityCheckingDefaultValue() #11
  store i32 %42, ptr %50, align 4
  %51 = call i32 @xmlPedanticParserDefault(i32 noundef %44) #11
  %52 = call i32 @xmlSubstituteEntitiesDefault(i32 noundef %45) #11
  %53 = call i32 @xmlLineNumbersDefault(i32 noundef %46) #11
  %54 = call i32 @xmlKeepBlanksDefault(i32 noundef %47) #11
  call void @llvm.lifetime.end.p0(i64 4097, ptr nonnull %4)
  %.not22 = icmp eq ptr %48, null
  br i1 %.not22, label %.thread, label %55

55:                                               ; preds = %_xmlreader_get_relaxNG.exit
  %56 = load ptr, ptr %25, align 8
  %57 = call i32 @xmlTextReaderRelaxNGSetSchema(ptr noundef %56, ptr noundef nonnull %48) #11
  br label %60

58:                                               ; preds = %27
  %59 = call i32 @xmlTextReaderRelaxNGSetSchema(ptr noundef nonnull %26, ptr noundef null) #11
  br label %60

60:                                               ; preds = %55, %58
  %.016 = phi i32 [ %57, %55 ], [ %59, %58 ]
  %.0 = phi ptr [ %48, %55 ], [ null, %58 ]
  %61 = icmp eq i32 %.016, 0
  br i1 %61, label %62, label %.thread

62:                                               ; preds = %60
  %63 = getelementptr inbounds i8, ptr %24, i64 -16
  %64 = load ptr, ptr %63, align 8
  %.not23 = icmp eq ptr %64, null
  br i1 %.not23, label %66, label %65

65:                                               ; preds = %62
  call void @xmlRelaxNGFree(ptr noundef nonnull %64) #11
  br label %66

66:                                               ; preds = %65, %62
  store ptr %.0, ptr %63, align 8
  %67 = getelementptr inbounds i8, ptr %1, i64 8
  store i32 3, ptr %67, align 8
  br label %72

.thread:                                          ; preds = %_xmlreader_get_relaxNG.exit.thread, %_xmlreader_get_relaxNG.exit, %60
  call void (ptr, i32, ptr, ...) @php_error_docref(ptr noundef null, i32 noundef 2, ptr noundef nonnull @.str.19) #11
  %68 = getelementptr inbounds i8, ptr %1, i64 8
  store i32 2, ptr %68, align 8
  br label %72

69:                                               ; preds = %23
  call void (ptr, ptr, ...) @zend_throw_error(ptr noundef null, ptr noundef nonnull @.str.20) #11
  %70 = load ptr, ptr getelementptr inbounds (%struct._zend_executor_globals, ptr @executor_globals, i64 0, i32 50), align 8
  %71 = icmp ne ptr %70, null
  call void @llvm.assume(i1 %71)
  br label %72

72:                                               ; preds = %69, %.thread, %66, %20, %12
  ret void
}